; Function Attrs: mustprogress nofree norecurse nosync nounwind memory(argmem: readwrite) uwtable
define void @_Z26lodepng_chunk_generate_crcPh(ptr noundef captures(none) %0) local_unnamed_addr #8 {
  %2 = load i8, ptr %0, align 1, !tbaa !18
  %3 = zext i8 %2 to i32
  %4 = shl nuw i32 %3, 24
  %5 = getelementptr inbounds nuw i8, ptr %0, i64 1
  %6 = load i8, ptr %5, align 1, !tbaa !18
  %7 = zext i8 %6 to i32
  %8 = shl nuw nsw i32 %7, 16
  %9 = or disjoint i32 %8, %4
  %10 = getelementptr inbounds nuw i8, ptr %0, i64 2
  %11 = load i8, ptr %10, align 1, !tbaa !18
  %12 = zext i8 %11 to i32
  %13 = shl nuw nsw i32 %12, 8
  %14 = or disjoint i32 %9, %13
  %15 = getelementptr inbounds nuw i8, ptr %0, i64 3
  %16 = load i8, ptr %15, align 1, !tbaa !18
  %17 = zext i8 %16 to i32
  %18 = or disjoint i32 %14, %17
  %19 = getelementptr inbounds nuw i8, ptr %0, i64 4
  %20 = add i32 %18, 4
  %21 = zext i32 %20 to i64
  %22 = icmp ugt i32 %20, 7
  br i1 %22, label %.lr.ph.i, label %.preheader.i

.preheader.i:                                     ; preds = %.lr.ph.i, %1
  %.021.lcssa.i = phi ptr [ %19, %1 ], [ %83, %.lr.ph.i ]
  %.019.lcssa.i = phi i64 [ %21, %1 ], [ %84, %.lr.ph.i ]
  %.0.lcssa.i = phi i32 [ -1, %1 ], [ %82, %.lr.ph.i ]
  %.not28.i = icmp eq i64 %.019.lcssa.i, 0
  br i1 %.not28.i, label %_Z13lodepng_crc32PKhm.exit, label %.lr.ph32.i

.lr.ph.i:                                         ; preds = %1, %.lr.ph.i
  %.025.i = phi i32 [ %82, %.lr.ph.i ], [ -1, %1 ]
  %.01924.i = phi i64 [ %84, %.lr.ph.i ], [ %21, %1 ]
  %.02123.i = phi ptr [ %83, %.lr.ph.i ], [ %19, %1 ]
  %23 = load i8, ptr %.02123.i, align 1, !tbaa !18
  %24 = zext i8 %23 to i32
  %25 = and i32 %.025.i, 255
  %26 = xor i32 %25, %24
  %27 = zext nneg i32 %26 to i64
  %28 = getelementptr inbounds nuw [256 x i32], ptr @_ZL20lodepng_crc32_table7, i64 0, i64 %27
  %29 = load i32, ptr %28, align 4, !tbaa !10
  %30 = getelementptr inbounds nuw i8, ptr %.02123.i, i64 1
  %31 = load i8, ptr %30, align 1, !tbaa !18
  %32 = zext i8 %31 to i32
  %33 = lshr i32 %.025.i, 8
  %34 = and i32 %33, 255
  %35 = xor i32 %34, %32
  %36 = zext nneg i32 %35 to i64
  %37 = getelementptr inbounds nuw [256 x i32], ptr @_ZL20lodepng_crc32_table6, i64 0, i64 %36
  %38 = load i32, ptr %37, align 4, !tbaa !10
  %39 = xor i32 %38, %29
  %40 = getelementptr inbounds nuw i8, ptr %.02123.i, i64 2
  %41 = load i8, ptr %40, align 1, !tbaa !18
  %42 = zext i8 %41 to i32
  %43 = lshr i32 %.025.i, 16
  %44 = and i32 %43, 255
  %45 = xor i32 %44, %42
  %46 = zext nneg i32 %45 to i64
  %47 = getelementptr inbounds nuw [256 x i32], ptr @_ZL20lodepng_crc32_table5, i64 0, i64 %46
  %48 = load i32, ptr %47, align 4, !tbaa !10
  %49 = xor i32 %39, %48
  %50 = getelementptr inbounds nuw i8, ptr %.02123.i, i64 3
  %51 = load i8, ptr %50, align 1, !tbaa !18
  %52 = zext i8 %51 to i32
  %53 = lshr i32 %.025.i, 24
  %54 = xor i32 %53, %52
  %55 = zext nneg i32 %54 to i64
  %56 = getelementptr inbounds nuw [256 x i32], ptr @_ZL20lodepng_crc32_table4, i64 0, i64 %55
  %57 = load i32, ptr %56, align 4, !tbaa !10
  %58 = xor i32 %49, %57
  %59 = getelementptr inbounds nuw i8, ptr %.02123.i, i64 4
  %60 = load i8, ptr %59, align 1, !tbaa !18
  %61 = zext i8 %60 to i64
  %62 = getelementptr inbounds nuw [256 x i32], ptr @_ZL20lodepng_crc32_table3, i64 0, i64 %61
  %63 = load i32, ptr %62, align 4, !tbaa !10
  %64 = xor i32 %58, %63
  %65 = getelementptr inbounds nuw i8, ptr %.02123.i, i64 5
  %66 = load i8, ptr %65, align 1, !tbaa !18
  %67 = zext i8 %66 to i64
  %68 = getelementptr inbounds nuw [256 x i32], ptr @_ZL20lodepng_crc32_table2, i64 0, i64 %67
  %69 = load i32, ptr %68, align 4, !tbaa !10
  %70 = xor i32 %64, %69
  %71 = getelementptr inbounds nuw i8, ptr %.02123.i, i64 6
  %72 = load i8, ptr %71, align 1, !tbaa !18
  %73 = zext i8 %72 to i64
  %74 = getelementptr inbounds nuw [256 x i32], ptr @_ZL20lodepng_crc32_table1, i64 0, i64 %73
  %75 = load i32, ptr %74, align 4, !tbaa !10
  %76 = xor i32 %70, %75
  %77 = getelementptr inbounds nuw i8, ptr %.02123.i, i64 7
  %78 = load i8, ptr %77, align 1, !tbaa !18
  %79 = zext i8 %78 to i64
  %80 = getelementptr inbounds nuw [256 x i32], ptr @_ZL20lodepng_crc32_table0, i64 0, i64 %79
  %81 = load i32, ptr %80, align 4, !tbaa !10
  %82 = xor i32 %76, %81
  %83 = getelementptr inbounds nuw i8, ptr %.02123.i, i64 8
  %84 = add i64 %.01924.i, -8
  %85 = icmp ugt i64 %84, 7
  br i1 %85, label %.lr.ph.i, label %.preheader.i, !llvm.loop !167

.lr.ph32.i:                                       ; preds = %.preheader.i, %.lr.ph32.i
  %.131.i = phi i32 [ %93, %.lr.ph32.i ], [ %.0.lcssa.i, %.preheader.i ]
  %.12030.i = phi i64 [ %86, %.lr.ph32.i ], [ %.019.lcssa.i, %.preheader.i ]
  %.12229.i = phi ptr [ %87, %.lr.ph32.i ], [ %.021.lcssa.i, %.preheader.i ]
  %86 = add i64 %.12030.i, -1
  %87 = getelementptr inbounds nuw i8, ptr %.12229.i, i64 1
  %88 = load i8, ptr %.12229.i, align 1, !tbaa !18
  %.1.tr.i = trunc i32 %.131.i to i8
  %.narrow.i = xor i8 %88, %.1.tr.i
  %89 = zext i8 %.narrow.i to i64
  %90 = getelementptr inbounds nuw [256 x i32], ptr @_ZL20lodepng_crc32_table0, i64 0, i64 %89
  %91 = load i32, ptr %90, align 4, !tbaa !10
  %92 = lshr i32 %.131.i, 8
  %93 = xor i32 %91, %92
  %.not.i = icmp eq i64 %86, 0
  br i1 %.not.i, label %_Z13lodepng_crc32PKhm.exit, label %.lr.ph32.i, !llvm.loop !168

_Z13lodepng_crc32PKhm.exit:                       ; preds = %.lr.ph32.i, %.preheader.i
  %.1.lcssa.i = phi i32 [ %.0.lcssa.i, %.preheader.i ], [ %93, %.lr.ph32.i ]
  %94 = xor i32 %.1.lcssa.i, -1
  %95 = getelementptr inbounds nuw i8, ptr %0, i64 8
  %96 = zext i32 %18 to i64
  %97 = getelementptr inbounds nuw i8, ptr %95, i64 %96
  %98 = lshr i32 %94, 24
  %99 = trunc nuw i32 %98 to i8
  store i8 %99, ptr %97, align 1, !tbaa !18
  %100 = lshr i32 %94, 16
  %101 = trunc i32 %100 to i8
  %102 = getelementptr inbounds nuw i8, ptr %97, i64 1
  store i8 %101, ptr %102, align 1, !tbaa !18
  %103 = lshr i32 %94, 8
  %104 = trunc i32 %103 to i8
  %105 = getelementptr inbounds nuw i8, ptr %97, i64 2
  store i8 %104, ptr %105, align 1, !tbaa !18
  %106 = trunc i32 %94 to i8
  %107 = getelementptr inbounds nuw i8, ptr %97, i64 3
  store i8 %106, ptr %107, align 1, !tbaa !18
  ret void
}